; Function Attrs: mustprogress nofree norecurse nosync nounwind willreturn memory(read, inaccessiblemem: none) uwtable
define hidden noundef zeroext i1 @_ZN4cvc58internal6theory11quantifiers4inst15TriggerTermInfo15isAtomicTriggerENS0_12NodeTemplateILb1EEE(ptr noundef readonly captures(none) %0) local_unnamed_addr #5 align 2 {
  %2 = load ptr, ptr %0, align 8, !tbaa !8
  %3 = getelementptr inbounds nuw i8, ptr %2, i64 8
  %4 = load i64, ptr %3, align 8
  %5 = trunc i64 %4 to i32
  %6 = and i32 %5, 1023
  switch i32 %6, label %7 [
    i32 317, label %_ZN4cvc58internal6theory11quantifiers4inst15TriggerTermInfo19isAtomicTriggerKindENS0_4kind6Kind_tE.exit
    i32 259, label %_ZN4cvc58internal6theory11quantifiers4inst15TriggerTermInfo19isAtomicTriggerKindENS0_4kind6Kind_tE.exit
    i32 258, label %_ZN4cvc58internal6theory11quantifiers4inst15TriggerTermInfo19isAtomicTriggerKindENS0_4kind6Kind_tE.exit
    i32 257, label %_ZN4cvc58internal6theory11quantifiers4inst15TriggerTermInfo19isAtomicTriggerKindENS0_4kind6Kind_tE.exit
    i32 256, label %_ZN4cvc58internal6theory11quantifiers4inst15TriggerTermInfo19isAtomicTriggerKindENS0_4kind6Kind_tE.exit
    i32 255, label %_ZN4cvc58internal6theory11quantifiers4inst15TriggerTermInfo19isAtomicTriggerKindENS0_4kind6Kind_tE.exit
    i32 254, label %_ZN4cvc58internal6theory11quantifiers4inst15TriggerTermInfo19isAtomicTriggerKindENS0_4kind6Kind_tE.exit
    i32 248, label %_ZN4cvc58internal6theory11quantifiers4inst15TriggerTermInfo19isAtomicTriggerKindENS0_4kind6Kind_tE.exit
    i32 226, label %_ZN4cvc58internal6theory11quantifiers4inst15TriggerTermInfo19isAtomicTriggerKindENS0_4kind6Kind_tE.exit
    i32 225, label %_ZN4cvc58internal6theory11quantifiers4inst15TriggerTermInfo19isAtomicTriggerKindENS0_4kind6Kind_tE.exit
    i32 224, label %_ZN4cvc58internal6theory11quantifiers4inst15TriggerTermInfo19isAtomicTriggerKindENS0_4kind6Kind_tE.exit
    i32 216, label %_ZN4cvc58internal6theory11quantifiers4inst15TriggerTermInfo19isAtomicTriggerKindENS0_4kind6Kind_tE.exit
    i32 215, label %_ZN4cvc58internal6theory11quantifiers4inst15TriggerTermInfo19isAtomicTriggerKindENS0_4kind6Kind_tE.exit
    i32 38, label %_ZN4cvc58internal6theory11quantifiers4inst15TriggerTermInfo19isAtomicTriggerKindENS0_4kind6Kind_tE.exit
    i32 36, label %_ZN4cvc58internal6theory11quantifiers4inst15TriggerTermInfo19isAtomicTriggerKindENS0_4kind6Kind_tE.exit
    i32 30, label %_ZN4cvc58internal6theory11quantifiers4inst15TriggerTermInfo19isAtomicTriggerKindENS0_4kind6Kind_tE.exit
    i32 27, label %_ZN4cvc58internal6theory11quantifiers4inst15TriggerTermInfo19isAtomicTriggerKindENS0_4kind6Kind_tE.exit
    i32 345, label %_ZN4cvc58internal6theory11quantifiers4inst15TriggerTermInfo19isAtomicTriggerKindENS0_4kind6Kind_tE.exit
  ]

7:                                                ; preds = %1
  br label %_ZN4cvc58internal6theory11quantifiers4inst15TriggerTermInfo19isAtomicTriggerKindENS0_4kind6Kind_tE.exit

_ZN4cvc58internal6theory11quantifiers4inst15TriggerTermInfo19isAtomicTriggerKindENS0_4kind6Kind_tE.exit: ; preds = %1, %1, %1, %1, %1, %1, %1, %1, %1, %1, %1, %1, %1, %1, %1, %1, %1, %1, %7
  %8 = phi i1 [ true, %1 ], [ false, %7 ], [ true, %1 ], [ true, %1 ], [ true, %1 ], [ true, %1 ], [ true, %1 ], [ true, %1 ], [ true, %1 ], [ true, %1 ], [ true, %1 ], [ true, %1 ], [ true, %1 ], [ true, %1 ], [ true, %1 ], [ true, %1 ], [ true, %1 ], [ true, %1 ], [ true, %1 ]
  ret i1 %8
}